(dp0
VD_Z
p1
I28
sVD_X
p2
I26
sVD_Y
p3
I30
sVD_R
p4
I20
sVD_S
p5
I23
sVD_P
p6
I12
sVD_V
p7
I3
sVD_W
p8
I5
sVD_T
p9
I9
sVD_U
p10
I10
sVD_K
p11
I6
sVD_H
p12
I11
sVD_I
p13
I25
sVD_N
p14
I1
sVD_O
p15
I29
sVD_L
p16
I21
sVD_B
p17
I19
sVD_C
p18
I22
sVD_A
p19
I16
sVD_F
p20
I18
sVD_D
p21
I15
sVD_E
p22
I13
sVA_Q
p23
I27
sVD_MQ
p24
I4
sVA_NZ
p25
I7
sVA_NX
p26
I17
sVA_NR
p27
I8
sVA_NS
p28
I2
sVA_M
p29
I14
sVA_NT
p30
I24
s.